target datalayout = "e-m:e-p270:32:32-p271:32:32-p272:64:64-i64:64-i128:128-f80:128-n8:16:32:64-S128"
target triple = "x86_64-pc-linux-gnu"

%"struct.ozz::animation::offline::RawAnimation" = type { %"class.std::vector", float, %"class.std::__cxx11::basic_string" }
%"class.std::vector" = type { %"struct.std::_Vector_base" }
%"struct.std::_Vector_base" = type { %"struct.std::_Vector_base<ozz::animation::offline::RawAnimation::JointTrack, ozz::StdAllocator<ozz::animation::offline::RawAnimation::JointTrack>>::_Vector_impl" }
%"struct.std::_Vector_base<ozz::animation::offline::RawAnimation::JointTrack, ozz::StdAllocator<ozz::animation::offline::RawAnimation::JointTrack>>::_Vector_impl" = type { %"struct.std::_Vector_base<ozz::animation::offline::RawAnimation::JointTrack, ozz::StdAllocator<ozz::animation::offline::RawAnimation::JointTrack>>::_Vector_impl_data" }
%"struct.std::_Vector_base<ozz::animation::offline::RawAnimation::JointTrack, ozz::StdAllocator<ozz::animation::offline::RawAnimation::JointTrack>>::_Vector_impl_data" = type { ptr, ptr, ptr }
%"class.std::__cxx11::basic_string" = type { %"struct.std::__cxx11::basic_string<char, std::char_traits<char>, ozz::StdAllocator<char>>::_Alloc_hider", i64, %union.anon }
%"struct.std::__cxx11::basic_string<char, std::char_traits<char>, ozz::StdAllocator<char>>::_Alloc_hider" = type { ptr }
%union.anon = type { i64, [8 x i8] }
%"struct.ozz::animation::offline::RawAnimation::JointTrack" = type { %"class.std::vector.2", %"class.std::vector.6", %"class.std::vector.10" }
%"class.std::vector.2" = type { %"struct.std::_Vector_base.3" }
%"struct.std::_Vector_base.3" = type { %"struct.std::_Vector_base<ozz::animation::offline::RawAnimation::TranslationKey, ozz::StdAllocator<ozz::animation::offline::RawAnimation::TranslationKey>>::_Vector_impl" }
%"struct.std::_Vector_base<ozz::animation::offline::RawAnimation::TranslationKey, ozz::StdAllocator<ozz::animation::offline::RawAnimation::TranslationKey>>::_Vector_impl" = type { %"struct.std::_Vector_base<ozz::animation::offline::RawAnimation::TranslationKey, ozz::StdAllocator<ozz::animation::offline::RawAnimation::TranslationKey>>::_Vector_impl_data" }
%"struct.std::_Vector_base<ozz::animation::offline::RawAnimation::TranslationKey, ozz::StdAllocator<ozz::animation::offline::RawAnimation::TranslationKey>>::_Vector_impl_data" = type { ptr, ptr, ptr }
%"class.std::vector.6" = type { %"struct.std::_Vector_base.7" }
%"struct.std::_Vector_base.7" = type { %"struct.std::_Vector_base<ozz::animation::offline::RawAnimation::RotationKey, ozz::StdAllocator<ozz::animation::offline::RawAnimation::RotationKey>>::_Vector_impl" }
%"struct.std::_Vector_base<ozz::animation::offline::RawAnimation::RotationKey, ozz::StdAllocator<ozz::animation::offline::RawAnimation::RotationKey>>::_Vector_impl" = type { %"struct.std::_Vector_base<ozz::animation::offline::RawAnimation::RotationKey, ozz::StdAllocator<ozz::animation::offline::RawAnimation::RotationKey>>::_Vector_impl_data" }
%"struct.std::_Vector_base<ozz::animation::offline::RawAnimation::RotationKey, ozz::StdAllocator<ozz::animation::offline::RawAnimation::RotationKey>>::_Vector_impl_data" = type { ptr, ptr, ptr }
%"class.std::vector.10" = type { %"struct.std::_Vector_base.11" }
%"struct.std::_Vector_base.11" = type { %"struct.std::_Vector_base<ozz::animation::offline::RawAnimation::ScaleKey, ozz::StdAllocator<ozz::animation::offline::RawAnimation::ScaleKey>>::_Vector_impl" }
%"struct.std::_Vector_base<ozz::animation::offline::RawAnimation::ScaleKey, ozz::StdAllocator<ozz::animation::offline::RawAnimation::ScaleKey>>::_Vector_impl" = type { %"struct.std::_Vector_base<ozz::animation::offline::RawAnimation::ScaleKey, ozz::StdAllocator<ozz::animation::offline::RawAnimation::ScaleKey>>::_Vector_impl_data" }
%"struct.std::_Vector_base<ozz::animation::offline::RawAnimation::ScaleKey, ozz::StdAllocator<ozz::animation::offline::RawAnimation::ScaleKey>>::_Vector_impl_data" = type { ptr, ptr, ptr }

; Function Attrs: mustprogress nounwind uwtable
define linkonce_odr dso_local noundef i64 @_ZNKSt7__cxx1112basic_stringIcSt11char_traitsIcEN3ozz12StdAllocatorIcEEE4sizeEv(ptr noundef nonnull align 8 dereferenceable(32) %0) #0 comdat align 2 {
  %2 = alloca ptr, align 8
  store ptr %0, ptr %2, align 8, !tbaa !23
  %3 = load ptr, ptr %2, align 8
  %4 = getelementptr inbounds nuw %"class.std::__cxx11::basic_string", ptr %3, i32 0, i32 1
  %5 = load i64, ptr %4, align 8, !tbaa !66
  ret i64 %5
}

; Function Attrs: mustprogress nounwind uwtable
define linkonce_odr dso_local noundef i64 @_ZNKSt6vectorIN3ozz9animation7offline12RawAnimation8ScaleKeyENS0_12StdAllocatorIS4_EEE4sizeEv(ptr noundef nonnull align 8 dereferenceable(24) %0) #0 comdat align 2 {
  %2 = alloca ptr, align 8
  store ptr %0, ptr %2, align 8, !tbaa !41
  %3 = load ptr, ptr %2, align 8
  %4 = getelementptr inbounds nuw %"struct.std::_Vector_base.11", ptr %3, i32 0, i32 0
  %5 = getelementptr inbounds nuw %"struct.std::_Vector_base<ozz::animation::offline::RawAnimation::ScaleKey, ozz::StdAllocator<ozz::animation::offline::RawAnimation::ScaleKey>>::_Vector_impl_data", ptr %4, i32 0, i32 1
  %6 = load ptr, ptr %5, align 8, !tbaa !62
  %7 = getelementptr inbounds nuw %"struct.std::_Vector_base.11", ptr %3, i32 0, i32 0
  %8 = getelementptr inbounds nuw %"struct.std::_Vector_base<ozz::animation::offline::RawAnimation::ScaleKey, ozz::StdAllocator<ozz::animation::offline::RawAnimation::ScaleKey>>::_Vector_impl_data", ptr %7, i32 0, i32 0
  %9 = load ptr, ptr %8, align 8, !tbaa !65
  %10 = ptrtoint ptr %6 to i64
  %11 = ptrtoint ptr %9 to i64
  %12 = sub i64 %10, %11
  %13 = sdiv exact i64 %12, 16
  ret i64 %13
}

; Function Attrs: mustprogress nounwind uwtable
define linkonce_odr dso_local noundef i64 @_ZNKSt6vectorIN3ozz9animation7offline12RawAnimation11RotationKeyENS0_12StdAllocatorIS4_EEE4sizeEv(ptr noundef nonnull align 8 dereferenceable(24) %0) #0 comdat align 2 {
  %2 = alloca ptr, align 8
  store ptr %0, ptr %2, align 8, !tbaa !35
  %3 = load ptr, ptr %2, align 8
  %4 = getelementptr inbounds nuw %"struct.std::_Vector_base.7", ptr %3, i32 0, i32 0
  %5 = getelementptr inbounds nuw %"struct.std::_Vector_base<ozz::animation::offline::RawAnimation::RotationKey, ozz::StdAllocator<ozz::animation::offline::RawAnimation::RotationKey>>::_Vector_impl_data", ptr %4, i32 0, i32 1
  %6 = load ptr, ptr %5, align 8, !tbaa !58
  %7 = getelementptr inbounds nuw %"struct.std::_Vector_base.7", ptr %3, i32 0, i32 0
  %8 = getelementptr inbounds nuw %"struct.std::_Vector_base<ozz::animation::offline::RawAnimation::RotationKey, ozz::StdAllocator<ozz::animation::offline::RawAnimation::RotationKey>>::_Vector_impl_data", ptr %7, i32 0, i32 0
  %9 = load ptr, ptr %8, align 8, !tbaa !61
  %10 = ptrtoint ptr %6 to i64
  %11 = ptrtoint ptr %9 to i64
  %12 = sub i64 %10, %11
  %13 = sdiv exact i64 %12, 20
  ret i64 %13
}

; Function Attrs: mustprogress nounwind uwtable
define linkonce_odr dso_local noundef i64 @_ZNKSt6vectorIN3ozz9animation7offline12RawAnimation14TranslationKeyENS0_12StdAllocatorIS4_EEE4sizeEv(ptr noundef nonnull align 8 dereferenceable(24) %0) #0 comdat align 2 {
  %2 = alloca ptr, align 8
  store ptr %0, ptr %2, align 8, !tbaa !27
  %3 = load ptr, ptr %2, align 8
  %4 = getelementptr inbounds nuw %"struct.std::_Vector_base.3", ptr %3, i32 0, i32 0
  %5 = getelementptr inbounds nuw %"struct.std::_Vector_base<ozz::animation::offline::RawAnimation::TranslationKey, ozz::StdAllocator<ozz::animation::offline::RawAnimation::TranslationKey>>::_Vector_impl_data", ptr %4, i32 0, i32 1
  %6 = load ptr, ptr %5, align 8, !tbaa !54
  %7 = getelementptr inbounds nuw %"struct.std::_Vector_base.3", ptr %3, i32 0, i32 0
  %8 = getelementptr inbounds nuw %"struct.std::_Vector_base<ozz::animation::offline::RawAnimation::TranslationKey, ozz::StdAllocator<ozz::animation::offline::RawAnimation::TranslationKey>>::_Vector_impl_data", ptr %7, i32 0, i32 0
  %9 = load ptr, ptr %8, align 8, !tbaa !57
  %10 = ptrtoint ptr %6 to i64
  %11 = ptrtoint ptr %9 to i64
  %12 = sub i64 %10, %11
  %13 = sdiv exact i64 %12, 16
  ret i64 %13
}

; Function Attrs: mustprogress nounwind uwtable
define linkonce_odr dso_local noundef nonnull align 8 dereferenceable(72) ptr @_ZNKSt6vectorIN3ozz9animation7offline12RawAnimation10JointTrackENS0_12StdAllocatorIS4_EEEixEm(ptr noundef nonnull align 8 dereferenceable(24) %0, i64 noundef %1) #0 comdat align 2 {
  %3 = alloca ptr, align 8
  %4 = alloca i64, align 8
  store ptr %0, ptr %3, align 8, !tbaa !21
  store i64 %1, ptr %4, align 8, !tbaa !29
  %5 = load ptr, ptr %3, align 8
  %6 = getelementptr inbounds nuw %"struct.std::_Vector_base", ptr %5, i32 0, i32 0
  %7 = getelementptr inbounds nuw %"struct.std::_Vector_base<ozz::animation::offline::RawAnimation::JointTrack, ozz::StdAllocator<ozz::animation::offline::RawAnimation::JointTrack>>::_Vector_impl_data", ptr %6, i32 0, i32 0
  %8 = load ptr, ptr %7, align 8, !tbaa !52
  %9 = load i64, ptr %4, align 8, !tbaa !29
  %10 = getelementptr inbounds nuw %"struct.ozz::animation::offline::RawAnimation::JointTrack", ptr %8, i64 %9
  ret ptr %10
}

; Function Attrs: mustprogress nounwind uwtable
define linkonce_odr dso_local noundef i64 @_ZNKSt6vectorIN3ozz9animation7offline12RawAnimation10JointTrackENS0_12StdAllocatorIS4_EEE4sizeEv(ptr noundef nonnull align 8 dereferenceable(24) %0) #0 comdat align 2 {
  %2 = alloca ptr, align 8
  store ptr %0, ptr %2, align 8, !tbaa !21
  %3 = load ptr, ptr %2, align 8
  %4 = getelementptr inbounds nuw %"struct.std::_Vector_base", ptr %3, i32 0, i32 0
  %5 = getelementptr inbounds nuw %"struct.std::_Vector_base<ozz::animation::offline::RawAnimation::JointTrack, ozz::StdAllocator<ozz::animation::offline::RawAnimation::JointTrack>>::_Vector_impl_data", ptr %4, i32 0, i32 1
  %6 = load ptr, ptr %5, align 8, !tbaa !51
  %7 = getelementptr inbounds nuw %"struct.std::_Vector_base", ptr %3, i32 0, i32 0
  %8 = getelementptr inbounds nuw %"struct.std::_Vector_base<ozz::animation::offline::RawAnimation::JointTrack, ozz::StdAllocator<ozz::animation::offline::RawAnimation::JointTrack>>::_Vector_impl_data", ptr %7, i32 0, i32 0
  %9 = load ptr, ptr %8, align 8, !tbaa !52
  %10 = ptrtoint ptr %6 to i64
  %11 = ptrtoint ptr %9 to i64
  %12 = sub i64 %10, %11
  %13 = sdiv exact i64 %12, 72
  ret i64 %13
}

; Function Attrs: mustprogress nounwind uwtable
define dso_local noundef i64 @_ZNK3ozz9animation7offline12RawAnimation4sizeEv(ptr noundef nonnull align 8 dereferenceable(64) %0) #0 align 2 {
  %2 = alloca ptr, align 8
  %3 = alloca i64, align 8
  %4 = alloca i64, align 8
  %5 = alloca i64, align 8
  store ptr %0, ptr %2, align 8, !tbaa !4
  %6 = load ptr, ptr %2, align 8
  call void @llvm.lifetime.start.p0(i64 8, ptr %3) #5
  store i64 64, ptr %3, align 8, !tbaa !29
  call void @llvm.lifetime.start.p0(i64 8, ptr %4) #5
  %7 = getelementptr inbounds nuw %"struct.ozz::animation::offline::RawAnimation", ptr %6, i32 0, i32 0
  %8 = call noundef i64 @_ZNKSt6vectorIN3ozz9animation7offline12RawAnimation10JointTrackENS0_12StdAllocatorIS4_EEE4sizeEv(ptr noundef nonnull align 8 dereferenceable(24) %7) #5
  store i64 %8, ptr %4, align 8, !tbaa !29
  call void @llvm.lifetime.start.p0(i64 8, ptr %5) #5
  store i64 0, ptr %5, align 8, !tbaa !29
  br label %9

9:                                                ; preds = %39, %1
  %10 = load i64, ptr %5, align 8, !tbaa !29
  %11 = load i64, ptr %4, align 8, !tbaa !29
  %12 = icmp ult i64 %10, %11
  br i1 %12, label %14, label %13

13:                                               ; preds = %9
  call void @llvm.lifetime.end.p0(i64 8, ptr %5) #5
  br label %42

14:                                               ; preds = %9
  %15 = getelementptr inbounds nuw %"struct.ozz::animation::offline::RawAnimation", ptr %6, i32 0, i32 0
  %16 = load i64, ptr %5, align 8, !tbaa !29
  %17 = call noundef nonnull align 8 dereferenceable(72) ptr @_ZNKSt6vectorIN3ozz9animation7offline12RawAnimation10JointTrackENS0_12StdAllocatorIS4_EEEixEm(ptr noundef nonnull align 8 dereferenceable(24) %15, i64 noundef %16) #5
  %18 = getelementptr inbounds nuw %"struct.ozz::animation::offline::RawAnimation::JointTrack", ptr %17, i32 0, i32 0
  %19 = call noundef i64 @_ZNKSt6vectorIN3ozz9animation7offline12RawAnimation14TranslationKeyENS0_12StdAllocatorIS4_EEE4sizeEv(ptr noundef nonnull align 8 dereferenceable(24) %18) #5
  %20 = mul i64 %19, 16
  %21 = load i64, ptr %3, align 8, !tbaa !29
  %22 = add i64 %21, %20
  store i64 %22, ptr %3, align 8, !tbaa !29
  %23 = getelementptr inbounds nuw %"struct.ozz::animation::offline::RawAnimation", ptr %6, i32 0, i32 0
  %24 = load i64, ptr %5, align 8, !tbaa !29
  %25 = call noundef nonnull align 8 dereferenceable(72) ptr @_ZNKSt6vectorIN3ozz9animation7offline12RawAnimation10JointTrackENS0_12StdAllocatorIS4_EEEixEm(ptr noundef nonnull align 8 dereferenceable(24) %23, i64 noundef %24) #5
  %26 = getelementptr inbounds nuw %"struct.ozz::animation::offline::RawAnimation::JointTrack", ptr %25, i32 0, i32 1
  %27 = call noundef i64 @_ZNKSt6vectorIN3ozz9animation7offline12RawAnimation11RotationKeyENS0_12StdAllocatorIS4_EEE4sizeEv(ptr noundef nonnull align 8 dereferenceable(24) %26) #5
  %28 = mul i64 %27, 20
  %29 = load i64, ptr %3, align 8, !tbaa !29
  %30 = add i64 %29, %28
  store i64 %30, ptr %3, align 8, !tbaa !29
  %31 = getelementptr inbounds nuw %"struct.ozz::animation::offline::RawAnimation", ptr %6, i32 0, i32 0
  %32 = load i64, ptr %5, align 8, !tbaa !29
  %33 = call noundef nonnull align 8 dereferenceable(72) ptr @_ZNKSt6vectorIN3ozz9animation7offline12RawAnimation10JointTrackENS0_12StdAllocatorIS4_EEEixEm(ptr noundef nonnull align 8 dereferenceable(24) %31, i64 noundef %32) #5
  %34 = getelementptr inbounds nuw %"struct.ozz::animation::offline::RawAnimation::JointTrack", ptr %33, i32 0, i32 2
  %35 = call noundef i64 @_ZNKSt6vectorIN3ozz9animation7offline12RawAnimation8ScaleKeyENS0_12StdAllocatorIS4_EEE4sizeEv(ptr noundef nonnull align 8 dereferenceable(24) %34) #5
  %36 = mul i64 %35, 16
  %37 = load i64, ptr %3, align 8, !tbaa !29
  %38 = add i64 %37, %36
  store i64 %38, ptr %3, align 8, !tbaa !29
  br label %39

39:                                               ; preds = %14
  %40 = load i64, ptr %5, align 8, !tbaa !29
  %41 = add i64 %40, 1
  store i64 %41, ptr %5, align 8, !tbaa !29
  br label %9, !llvm.loop !53

42:                                               ; preds = %13
  %43 = load i64, ptr %4, align 8, !tbaa !29
  %44 = mul i64 %43, 72
  %45 = load i64, ptr %3, align 8, !tbaa !29
  %46 = add i64 %45, %44
  store i64 %46, ptr %3, align 8, !tbaa !29
  %47 = getelementptr inbounds nuw %"struct.ozz::animation::offline::RawAnimation", ptr %6, i32 0, i32 2
  %48 = call noundef i64 @_ZNKSt7__cxx1112basic_stringIcSt11char_traitsIcEN3ozz12StdAllocatorIcEEE4sizeEv(ptr noundef nonnull align 8 dereferenceable(32) %47) #5
  %49 = load i64, ptr %3, align 8, !tbaa !29
  %50 = add i64 %49, %48
  store i64 %50, ptr %3, align 8, !tbaa !29
  %51 = load i64, ptr %3, align 8, !tbaa !29
  call void @llvm.lifetime.end.p0(i64 8, ptr %4) #5
  call void @llvm.lifetime.end.p0(i64 8, ptr %3) #5
  ret i64 %51
}