; Function Attrs: mustprogress nofree norecurse nosync nounwind willreturn memory(read, inaccessiblemem: none) uwtable
define dso_local noundef i64 @_ZNK3ozz9animation7offline12RawAnimation4sizeEv(ptr noundef nonnull readonly align 8 captures(none) dereferenceable(64) %0) local_unnamed_addr #1 align 2 {
  %2 = getelementptr inbounds nuw i8, ptr %0, i64 8
  %3 = load ptr, ptr %2, align 8, !tbaa !34
  %4 = load ptr, ptr %0, align 8, !tbaa !35
  %5 = ptrtoint ptr %3 to i64
  %6 = ptrtoint ptr %4 to i64
  %7 = sub i64 %5, %6
  %.not = icmp eq ptr %3, %4
  br i1 %.not, label %._crit_edge, label %.lr.ph.preheader

.lr.ph.preheader:                                 ; preds = %1
  %8 = sdiv exact i64 %7, 72
  %umax = tail call i64 @llvm.umax.i64(i64 %8, i64 1)
  br label %.lr.ph

._crit_edge:                                      ; preds = %.lr.ph, %1
  %.013.lcssa = phi i64 [ 64, %1 ], [ %36, %.lr.ph ]
  %9 = add i64 %.013.lcssa, %7
  %10 = getelementptr inbounds nuw i8, ptr %0, i64 40
  %11 = load i64, ptr %10, align 8, !tbaa !20
  %12 = add i64 %9, %11
  ret i64 %12

.lr.ph:                                           ; preds = %.lr.ph.preheader, %.lr.ph
  %.018 = phi i64 [ %37, %.lr.ph ], [ 0, %.lr.ph.preheader ]
  %.01317 = phi i64 [ %36, %.lr.ph ], [ 64, %.lr.ph.preheader ]
  %13 = getelementptr inbounds nuw %"struct.ozz::animation::offline::RawAnimation::JointTrack", ptr %4, i64 %.018
  %14 = getelementptr inbounds nuw i8, ptr %13, i64 8
  %15 = load ptr, ptr %14, align 8, !tbaa !36
  %16 = load ptr, ptr %13, align 8, !tbaa !39
  %17 = ptrtoint ptr %15 to i64
  %18 = ptrtoint ptr %16 to i64
  %19 = getelementptr inbounds nuw i8, ptr %13, i64 24
  %20 = getelementptr inbounds nuw i8, ptr %13, i64 32
  %21 = load ptr, ptr %20, align 8, !tbaa !40
  %22 = load ptr, ptr %19, align 8, !tbaa !43
  %23 = ptrtoint ptr %21 to i64
  %24 = ptrtoint ptr %22 to i64
  %25 = getelementptr inbounds nuw i8, ptr %13, i64 48
  %26 = getelementptr inbounds nuw i8, ptr %13, i64 56
  %27 = load ptr, ptr %26, align 8, !tbaa !44
  %28 = load ptr, ptr %25, align 8, !tbaa !47
  %29 = ptrtoint ptr %27 to i64
  %30 = ptrtoint ptr %28 to i64
  %31 = add i64 %.01317, %17
  %32 = add i64 %31, %23
  %33 = add i64 %18, %24
  %34 = add i64 %32, %29
  %35 = add i64 %33, %30
  %36 = sub i64 %34, %35
  %37 = add nuw i64 %.018, 1
  %exitcond.not = icmp eq i64 %37, %umax
  br i1 %exitcond.not, label %._crit_edge, label %.lr.ph, !llvm.loop !48
}